Certificate:
    Data:
        Version: 1 (0x0)
        Serial Number: 1048578 (0x100002)
        Signature Algorithm: sha1WithRSAEncryption
        Issuer: O=Transport 4 You, OU=Development/emailAddress=dominik@dominikholling.de, L=Kaiserslautern, ST=Rheinland-Pfalz, C=DE, CN=Transport 4 You CA
        Validity
            Not Before: Feb  2 10:45:23 2011 GMT
            Not After : Jan 30 10:45:23 2021 GMT
        Subject: C=DE, ST=Rheinland-Pfalz, O=Transport 4 You, OU=Development, CN=Transport 4 You Blob Encryption
        Subject Public Key Info:
            Public Key Algorithm: rsaEncryption
            RSA Public Key: (2048 bit)
                Modulus (2048 bit):
                    00:c1:75:1f:7d:2a:77:1e:36:15:1b:0e:1d:f8:68:
                    1b:6b:cd:a7:87:65:41:1d:3e:70:95:19:b0:6d:02:
                    97:ce:f0:c2:ac:46:8b:e5:c2:6d:71:d1:0b:96:19:
                    d3:51:06:ea:95:01:7e:78:84:25:de:8b:3a:44:61:
                    c7:23:be:52:30:7c:fe:40:18:f1:33:13:ac:d8:2d:
                    84:71:bc:9c:a9:76:aa:46:b0:f9:87:ff:fb:32:9c:
                    db:81:65:7b:84:26:a9:ee:4a:61:fb:e2:c1:c4:dc:
                    a1:36:c9:b6:64:c2:a3:a5:8e:f5:b2:d9:11:34:7a:
                    d9:ce:cc:b0:46:01:6e:c1:01:5d:12:a8:af:66:25:
                    92:be:ee:0e:20:08:48:40:ff:15:84:ea:b4:c0:2e:
                    41:72:44:b4:ab:8d:b5:58:77:11:5c:86:c1:00:21:
                    f4:54:d7:0d:3f:76:f6:42:ce:ae:ad:f3:08:a6:a8:
                    e0:51:88:d3:d6:4c:57:c1:77:37:e8:6e:89:44:a0:
                    8e:5d:a4:08:6e:51:1c:ec:42:82:1d:51:3e:ff:60:
                    da:00:a1:b2:95:8f:2c:c2:a7:88:55:79:be:d7:1e:
                    21:5a:71:94:ef:53:45:7c:01:62:71:18:c5:0a:02:
                    4d:9c:b8:1d:82:d3:04:76:67:24:65:e4:b3:37:80:
                    d5:17
                Exponent: 65537 (0x10001)
    Signature Algorithm: sha1WithRSAEncryption
        44:36:24:46:ff:e6:1b:ad:b7:c1:b4:cb:af:3e:e9:3b:ca:48:
        43:94:17:bc:ce:75:98:ae:bd:6c:f8:41:bf:b6:5e:39:67:96:
        f0:a7:1b:8f:79:9d:aa:81:d2:21:49:3f:70:b2:10:d0:d2:d5:
        f0:30:fe:d8:cb:d0:40:93:7c:52:e9:7d:80:c0:42:f4:8e:8d:
        ab:40:85:2e:57:15:cf:3f:b0:a1:a9:17:21:e5:b7:09:53:b9:
        f8:7b:0c:39:f3:87:61:7e:5d:97:d4:a1:67:4a:f7:52:71:15:
        7c:5f:4f:7c:7d:ab:b9:d9:f6:83:7d:08:71:ca:30:bb:0b:0d:
        dc:71:c6:96:fe:76:bf:f0:a8:19:a7:e8:0c:df:22:db:0b:74:
        6b:64:e6:55:42:f1:97:52:53:b8:ec:5a:07:c6:82:81:2e:b6:
        00:d1:0c:21:6c:b0:a8:68:91:40:4e:ed:43:74:0d:a4:7d:b3:
        16:ae:fd:d7:5a:7e:b2:81:8c:dd:d2:a2:f6:38:5e:79:75:c1:
        8a:03:63:01:7c:ad:88:f9:e6:1a:a4:c4:c3:dc:e6:5f:96:d4:
        59:05:66:c5:10:98:ec:b7:ad:9a:a1:b8:88:c4:9c:de:84:09:
        71:82:c3:94:d9:c7:2f:82:38:02:cb:77:b7:36:3b:f1:32:ae:
        d5:70:ab:7e
-----BEGIN CERTIFICATE-----
MIIDsDCCApgCAxAAAjANBgkqhkiG9w0BAQUFADCBtzEYMBYGA1UEChMPVHJhbnNw
b3J0IDQgWW91MRQwEgYDVQQLEwtEZXZlbG9wbWVudDEoMCYGCSqGSIb3DQEJARYZ
ZG9taW5pa0Bkb21pbmlraG9sbGluZy5kZTEXMBUGA1UEBxMOS2Fpc2Vyc2xhdXRl
cm4xGDAWBgNVBAgTD1JoZWlubGFuZC1QZmFsejELMAkGA1UEBhMCREUxGzAZBgNV
BAMTElRyYW5zcG9ydCA0IFlvdSBDQTAeFw0xMTAyMDIxMDQ1MjNaFw0yMTAxMzAx
MDQ1MjNaMIGBMQswCQYDVQQGEwJERTEYMBYGA1UECBMPUmhlaW5sYW5kLVBmYWx6
MRgwFgYDVQQKEw9UcmFuc3BvcnQgNCBZb3UxFDASBgNVBAsTC0RldmVsb3BtZW50
MSgwJgYDVQQDEx9UcmFuc3BvcnQgNCBZb3UgQmxvYiBFbmNyeXB0aW9uMIIBIjAN
BgkqhkiG9w0BAQEFAAOCAQ8AMIIBCgKCAQEAwXUffSp3HjYVGw4d+Ggba82nh2VB
HT5wlRmwbQKXzvDCrEaL5cJtcdELlhnTUQbqlQF+eIQl3os6RGHHI75SMHz+QBjx
MxOs2C2EcbycqXaqRrD5h//7MpzbgWV7hCap7kph++LBxNyhNsm2ZMKjpY71stkR
NHrZzsywRgFuwQFdEqivZiWSvu4OIAhIQP8VhOq0wC5BckS0q421WHcRXIbBACH0
VNcNP3b2Qs6urfMIpqjgUYjT1kxXwXc36G6JRKCOXaQIblEc7EKCHVE+/2DaAKGy
lY8swqeIVXm+1x4hWnGU71NFfAFicRjFCgJNnLgdgtMEdmckZeSzN4DVFwIDAQAB
MA0GCSqGSIb3DQEBBQUAA4IBAQBENiRG/+YbrbfBtMuvPuk7ykhDlBe8znWYrr1s
+EG/tl45Z5bwpxuPeZ2qgdIhST9wshDQ0tXwMP7Yy9BAk3xS6X2AwEL0jo2rQIUu
VxXPP7ChqRch5bcJU7n4eww584dhfl2X1KFnSvdScRV8X098fau52faDfQhxyjC7
Cw3cccaW/na/8KgZp+gM3yLbC3RrZOZVQvGXUlO47FoHxoKBLrYA0QwhbLCoaJFA
Tu1DdA2kfbMWrv3XWn6ygYzd0qL2OF55dcGKA2MBfK2I+eYapMTD3OZfltRZBWbF
EJjst62aobiIxJzehAlxgsOU2ccvgjgCy3e3NjvxMq7VcKt+
-----END CERTIFICATE-----
