Certificate:
    Data:
        Version: 1 (0x0)
        Serial Number: 1048577 (0x100001)
        Signature Algorithm: sha1WithRSAEncryption
        Issuer: O=Transport 4 You, OU=Development/emailAddress=dominik@dominikholling.de, L=Kaiserslautern, ST=Rheinland-Pfalz, C=DE, CN=Transport 4 You CA
        Validity
            Not Before: Dec 14 11:36:50 2010 GMT
            Not After : Dec 11 11:36:50 2020 GMT
        Subject: C=DE, ST=Rheinland-Pfalz, O=Transport 4 You, OU=Development, CN=Transport 4 You DH Bus Mobile
        Subject Public Key Info:
            Public Key Algorithm: rsaEncryption
            RSA Public Key: (2048 bit)
                Modulus (2048 bit):
                    00:d4:a3:e5:f1:99:ca:56:77:9e:3a:1a:c7:70:ed:
                    fc:bf:a6:5c:b7:93:83:dc:51:6c:63:d8:f2:20:96:
                    de:ab:ea:29:3c:f3:a2:78:31:01:03:7d:9a:ac:11:
                    ed:04:11:6f:4a:c0:9d:69:ff:bd:1c:a8:4a:44:78:
                    ce:fa:7c:55:e8:84:0e:c4:cf:58:72:0c:84:8b:13:
                    14:56:71:45:0d:8b:52:2e:16:71:27:39:72:5b:c8:
                    55:f9:fc:2a:cd:5f:99:d3:ae:7d:26:a9:d5:70:80:
                    1c:79:94:d9:2e:a1:92:f4:4c:a2:57:64:fd:a3:a1:
                    9d:ae:83:2f:99:e6:d6:ec:93:eb:3a:98:9b:30:38:
                    b9:e1:06:44:a8:8c:27:3d:66:25:e3:55:36:a7:63:
                    47:07:f8:77:b2:1c:a1:8d:76:cf:92:b1:08:fb:98:
                    56:13:59:97:ab:26:1b:f1:60:84:50:b5:da:1c:16:
                    3b:44:03:9c:1b:66:8f:0b:47:52:50:6e:98:fb:cc:
                    e3:1c:ff:20:aa:52:7c:9d:47:2c:86:f2:68:7f:7b:
                    8a:06:8e:0a:8f:3e:e9:b2:ba:fd:2e:70:28:9d:3e:
                    a8:be:3f:94:d8:91:b0:65:4a:93:68:ab:49:3c:0b:
                    d9:28:be:0b:f5:ab:c0:fb:f1:f4:f0:60:b7:c4:b1:
                    34:83
                Exponent: 65537 (0x10001)
    Signature Algorithm: sha1WithRSAEncryption
        0c:07:3c:be:90:9a:ae:1f:55:30:bc:d5:c5:08:41:72:65:60:
        55:6e:59:d3:67:0c:9c:66:62:83:65:4b:20:bc:89:f8:9e:aa:
        ed:28:2c:b6:d0:e4:1e:22:58:9f:f8:f7:9b:62:17:57:0a:86:
        bf:af:4b:10:d1:9e:e2:81:a7:5f:0c:93:28:4f:d4:fa:3c:2d:
        67:55:9d:c4:b8:ea:7f:05:c0:89:09:92:e5:0c:d5:9f:7b:86:
        93:fc:fb:6d:f9:8f:0e:30:99:65:d1:8a:67:7d:cd:10:82:04:
        58:c2:f7:4d:08:d6:6e:05:95:5e:0f:5c:6a:b6:04:c8:a8:24:
        6d:d6:23:74:4a:ed:e5:57:3d:d9:84:e4:cb:ef:bb:d0:6e:63:
        1a:9f:15:92:c1:ae:cf:56:8a:29:07:18:b5:d5:6b:96:83:d3:
        b5:89:3a:f7:b1:16:0f:bf:81:86:ba:ad:d5:7d:d7:7a:36:b2:
        ad:5a:6c:15:11:7e:81:4f:35:ac:ef:bc:6d:ec:4d:cf:42:c0:
        cc:97:89:94:5e:ff:7d:8d:c7:2d:b5:16:9a:df:ce:52:86:ec:
        a6:f1:33:cc:a8:8d:03:6e:77:fc:80:d7:16:53:47:42:2e:3a:
        e4:31:3d:ed:f5:b7:0d:1b:65:7f:df:44:78:2a:3e:ad:50:2d:
        eb:77:1c:34
-----BEGIN CERTIFICATE-----
MIIDrTCCApUCAxAAATANBgkqhkiG9w0BAQUFADCBtzEYMBYGA1UEChMPVHJhbnNw
b3J0IDQgWW91MRQwEgYDVQQLEwtEZXZlbG9wbWVudDEoMCYGCSqGSIb3DQEJARYZ
ZG9taW5pa0Bkb21pbmlraG9sbGluZy5kZTEXMBUGA1UEBxMOS2Fpc2Vyc2xhdXRl
cm4xGDAWBgNVBAgTD1JoZWlubGFuZC1QZmFsejELMAkGA1UEBhMCREUxGzAZBgNV
BAMTElRyYW5zcG9ydCA0IFlvdSBDQTAeFw0xMDEyMTQxMTM2NTBaFw0yMDEyMTEx
MTM2NTBaMH8xCzAJBgNVBAYTAkRFMRgwFgYDVQQIEw9SaGVpbmxhbmQtUGZhbHox
GDAWBgNVBAoTD1RyYW5zcG9ydCA0IFlvdTEUMBIGA1UECxMLRGV2ZWxvcG1lbnQx
JjAkBgNVBAMTHVRyYW5zcG9ydCA0IFlvdSBESCBCdXMgTW9iaWxlMIIBIjANBgkq
hkiG9w0BAQEFAAOCAQ8AMIIBCgKCAQEA1KPl8ZnKVneeOhrHcO38v6Zct5OD3FFs
Y9jyIJbeq+opPPOieDEBA32arBHtBBFvSsCdaf+9HKhKRHjO+nxV6IQOxM9YcgyE
ixMUVnFFDYtSLhZxJzlyW8hV+fwqzV+Z0659JqnVcIAceZTZLqGS9EyiV2T9o6Gd
roMvmebW7JPrOpibMDi54QZEqIwnPWYl41U2p2NHB/h3shyhjXbPkrEI+5hWE1mX
qyYb8WCEULXaHBY7RAOcG2aPC0dSUG6Y+8zjHP8gqlJ8nUcshvJof3uKBo4Kjz7p
srr9LnAonT6ovj+U2JGwZUqTaKtJPAvZKL4L9avA+/H08GC3xLE0gwIDAQABMA0G
CSqGSIb3DQEBBQUAA4IBAQAMBzy+kJquH1UwvNXFCEFyZWBVblnTZwycZmKDZUsg
vIn4nqrtKCy20OQeIlif+PebYhdXCoa/r0sQ0Z7igadfDJMoT9T6PC1nVZ3EuOp/
BcCJCZLlDNWfe4aT/Ptt+Y8OMJll0Ypnfc0QggRYwvdNCNZuBZVeD1xqtgTIqCRt
1iN0Su3lVz3ZhOTL77vQbmManxWSwa7PVoopBxi11WuWg9O1iTr3sRYPv4GGuq3V
fdd6NrKtWmwVEX6BTzWs77xt7E3PQsDMl4mUXv99jccttRaa385Shuym8TPMqI0D
bnf8gNcWU0dCLjrkMT3t9bcNG2V/30R4Kj6tUC3rdxw0
-----END CERTIFICATE-----
